target datalayout = "e-m:e-p270:32:32-p271:32:32-p272:64:64-i64:64-i128:128-f80:128-n8:16:32:64-S128"
target triple = "x86_64-pc-linux-gnu"

%struct.ossl_param_st = type { ptr, i32, ptr, i64, i64 }

@bio_out = external global ptr, align 8
@.str.115 = private unnamed_addr constant [3 x i8] c"%s\00", align 1
@.str.139 = private unnamed_addr constant [21 x i8] c"tls-sigalg-iana-name\00", align 1
@.str.140 = private unnamed_addr constant [2 x i8] c":\00", align 1

; Function Attrs: nounwind uwtable
define internal i32 @list_provider_tls_sigalgs(ptr noundef %0, ptr noundef %1) #0 {
  %3 = alloca ptr, align 8
  %4 = alloca ptr, align 8
  %5 = alloca ptr, align 8
  store ptr %0, ptr %3, align 8, !tbaa !159
  store ptr %1, ptr %4, align 8, !tbaa !123
  call void @llvm.lifetime.start.p0(i64 8, ptr %5) #7
  %6 = load ptr, ptr %3, align 8, !tbaa !159
  %7 = call ptr @OSSL_PARAM_locate_const(ptr noundef %6, ptr noundef @.str.139)
  store ptr %7, ptr %5, align 8, !tbaa !159
  %8 = load ptr, ptr %5, align 8, !tbaa !159
  %9 = icmp ne ptr %8, null
  br i1 %9, label %10, label %29

10:                                               ; preds = %2
  %11 = load ptr, ptr %5, align 8, !tbaa !159
  %12 = getelementptr inbounds nuw %struct.ossl_param_st, ptr %11, i32 0, i32 1
  %13 = load i32, ptr %12, align 8, !tbaa !163
  %14 = icmp eq i32 %13, 4
  br i1 %14, label %15, label %29

15:                                               ; preds = %10
  %16 = load ptr, ptr %4, align 8, !tbaa !123
  %17 = load i32, ptr %16, align 4, !tbaa !4
  %18 = icmp sgt i32 %17, 0
  br i1 %18, label %19, label %22

19:                                               ; preds = %15
  %20 = load ptr, ptr @bio_out, align 8, !tbaa !13
  %21 = call i32 (ptr, ptr, ...) @BIO_printf(ptr noundef %20, ptr noundef @.str.140)
  br label %22

22:                                               ; preds = %19, %15
  %23 = load ptr, ptr @bio_out, align 8, !tbaa !13
  %24 = load ptr, ptr %5, align 8, !tbaa !159
  %25 = getelementptr inbounds nuw %struct.ossl_param_st, ptr %24, i32 0, i32 2
  %26 = load ptr, ptr %25, align 8, !tbaa !164
  %27 = call i32 (ptr, ptr, ...) @BIO_printf(ptr noundef %23, ptr noundef @.str.115, ptr noundef %26)
  %28 = load ptr, ptr %4, align 8, !tbaa !123
  store i32 2, ptr %28, align 4, !tbaa !4
  br label %29

29:                                               ; preds = %22, %10, %2
  call void @llvm.lifetime.end.p0(i64 8, ptr %5) #7
  ret i32 1
}