; Function Attrs: nounwind uwtable
define internal noundef i32 @list_provider_tls_sigalgs(ptr noundef %0, ptr noundef captures(none) %1) #0 {
  %3 = tail call ptr @OSSL_PARAM_locate_const(ptr noundef %0, ptr noundef nonnull @.str.139) #6
  %.not = icmp eq ptr %3, null
  br i1 %.not, label %19, label %4

4:                                                ; preds = %2
  %5 = getelementptr inbounds nuw i8, ptr %3, i64 8
  %6 = load i32, ptr %5, align 8, !tbaa !80
  %7 = icmp eq i32 %6, 4
  br i1 %7, label %8, label %19

8:                                                ; preds = %4
  %9 = load i32, ptr %1, align 4, !tbaa !26
  %10 = icmp sgt i32 %9, 0
  br i1 %10, label %11, label %14

11:                                               ; preds = %8
  %12 = load ptr, ptr @bio_out, align 8, !tbaa !4
  %13 = tail call i32 (ptr, ptr, ...) @BIO_printf(ptr noundef %12, ptr noundef nonnull @.str.140) #6
  br label %14

14:                                               ; preds = %11, %8
  %15 = load ptr, ptr @bio_out, align 8, !tbaa !4
  %16 = getelementptr inbounds nuw i8, ptr %3, i64 16
  %17 = load ptr, ptr %16, align 8, !tbaa !81
  %18 = tail call i32 (ptr, ptr, ...) @BIO_printf(ptr noundef %15, ptr noundef nonnull @.str.115, ptr noundef %17) #6
  store i32 2, ptr %1, align 4, !tbaa !26
  br label %19

19:                                               ; preds = %14, %4, %2
  ret i32 1
}